target datalayout = "e-m:e-p270:32:32-p271:32:32-p272:64:64-i64:64-i128:128-f80:128-n8:16:32:64-S128"
target triple = "x86_64-pc-linux-gnu"

%"struct.faiss::ClusteringParameters" = type { i32, i32, i8, i8, i8, i8, i8, i32, i32, i32, i64 }
%"struct.faiss::IndexBinary" = type { ptr, i32, i32, i64, i8, i8, i32 }
%"struct.faiss::IndexBinaryIVF" = type { %"struct.faiss::IndexBinary", ptr, i8, i64, i64, i8, i8, %"struct.faiss::DirectMap", ptr, i64, i8, %"struct.faiss::ClusteringParameters", ptr }
%"struct.faiss::DirectMap" = type { i32, %"class.std::vector", %"class.std::unordered_map" }
%"class.std::vector" = type { %"struct.std::_Vector_base" }
%"struct.std::_Vector_base" = type { %"struct.std::_Vector_base<long, std::allocator<long>>::_Vector_impl" }
%"struct.std::_Vector_base<long, std::allocator<long>>::_Vector_impl" = type { %"struct.std::_Vector_base<long, std::allocator<long>>::_Vector_impl_data" }
%"struct.std::_Vector_base<long, std::allocator<long>>::_Vector_impl_data" = type { ptr, ptr, ptr }
%"class.std::unordered_map" = type { %"class.std::_Hashtable" }
%"class.std::_Hashtable" = type { ptr, i64, %"struct.std::__detail::_Hash_node_base", i64, %"struct.std::__detail::_Prime_rehash_policy", ptr }
%"struct.std::__detail::_Hash_node_base" = type { ptr }
%"struct.std::__detail::_Prime_rehash_policy" = type { float, i64 }
%"class.std::__cxx11::basic_string" = type { %"struct.std::__cxx11::basic_string<char>::_Alloc_hider", i64, %union.anon }
%"struct.std::__cxx11::basic_string<char>::_Alloc_hider" = type { ptr }
%union.anon = type { i64, [8 x i8] }

@.str = private unnamed_addr constant [19 x i8] c"Error: '%s' failed\00", align 1
@.str.1 = private unnamed_addr constant [18 x i8] c"d == quantizer->d\00", align 1
@__PRETTY_FUNCTION__._ZN5faiss14IndexBinaryIVFC2EPNS_11IndexBinaryEmm = private unnamed_addr constant [69 x i8] c"faiss::IndexBinaryIVF::IndexBinaryIVF(IndexBinary *, size_t, size_t)\00", align 1
@.str.2 = private unnamed_addr constant [114 x i8] c"generated/home/dtcxzyw/WorkSpace/Projects/compilers/llvm-opt-benchmark/bench/faiss/faiss/faiss/IndexBinaryIVF.cpp\00", align 1
@_ZTIN5faiss14FaissExceptionE = external constant ptr

; Function Attrs: mustprogress nounwind uwtable
define linkonce_odr void @_ZN5faiss20ClusteringParametersC2Ev(ptr noundef nonnull align 8 dereferenceable(40) %0) unnamed_addr #0 comdat align 2 {
  %2 = alloca ptr, align 8
  store ptr %0, ptr %2, align 8
  %3 = load ptr, ptr %2, align 8
  %4 = getelementptr inbounds %"struct.faiss::ClusteringParameters", ptr %3, i32 0, i32 0
  store i32 25, ptr %4, align 8
  %5 = getelementptr inbounds %"struct.faiss::ClusteringParameters", ptr %3, i32 0, i32 1
  store i32 1, ptr %5, align 4
  %6 = getelementptr inbounds %"struct.faiss::ClusteringParameters", ptr %3, i32 0, i32 2
  store i8 0, ptr %6, align 8
  %7 = getelementptr inbounds %"struct.faiss::ClusteringParameters", ptr %3, i32 0, i32 3
  store i8 0, ptr %7, align 1
  %8 = getelementptr inbounds %"struct.faiss::ClusteringParameters", ptr %3, i32 0, i32 4
  store i8 0, ptr %8, align 2
  %9 = getelementptr inbounds %"struct.faiss::ClusteringParameters", ptr %3, i32 0, i32 5
  store i8 0, ptr %9, align 1
  %10 = getelementptr inbounds %"struct.faiss::ClusteringParameters", ptr %3, i32 0, i32 6
  store i8 0, ptr %10, align 4
  %11 = getelementptr inbounds %"struct.faiss::ClusteringParameters", ptr %3, i32 0, i32 7
  store i32 39, ptr %11, align 8
  %12 = getelementptr inbounds %"struct.faiss::ClusteringParameters", ptr %3, i32 0, i32 8
  store i32 256, ptr %12, align 4
  %13 = getelementptr inbounds %"struct.faiss::ClusteringParameters", ptr %3, i32 0, i32 9
  store i32 1234, ptr %13, align 8
  %14 = getelementptr inbounds %"struct.faiss::ClusteringParameters", ptr %3, i32 0, i32 10
  store i64 32768, ptr %14, align 8
  ret void
}

; Function Attrs: mustprogress uwtable
define void @_ZN5faiss14IndexBinaryIVFC2EPNS_11IndexBinaryEmm(ptr noundef nonnull align 8 dereferenceable(232) %0, ptr noundef %1, i64 noundef %2, i64 noundef %3) unnamed_addr #1 align 2 personality ptr @__gxx_personality_v0 {
  %5 = alloca ptr, align 8
  %6 = alloca ptr, align 8
  %7 = alloca i64, align 8
  %8 = alloca i64, align 8
  %9 = alloca ptr, align 8
  %10 = alloca i32, align 4
  %11 = alloca %"class.std::__cxx11::basic_string", align 8
  %12 = alloca i32, align 4
  store ptr %0, ptr %5, align 8
  store ptr %1, ptr %6, align 8
  store i64 %2, ptr %7, align 8
  store i64 %3, ptr %8, align 8
  %13 = load ptr, ptr %5, align 8
  %14 = load i64, ptr %7, align 8
  call void @_ZN5faiss11IndexBinaryC2ElNS_10MetricTypeE(ptr noundef nonnull align 8 dereferenceable(32) %13, i64 noundef %14, i32 noundef 1)
  store ptr getelementptr inbounds ({ [18 x ptr] }, ptr @_ZTVN5faiss14IndexBinaryIVFE, i32 0, i32 0, i32 2), ptr %13, align 8
  %15 = getelementptr inbounds %"struct.faiss::IndexBinaryIVF", ptr %13, i32 0, i32 1
  %16 = invoke noalias noundef nonnull ptr @_Znwm(i64 noundef 80) #18
          to label %17 unwind label %57

17:                                               ; preds = %4
  %18 = load i64, ptr %8, align 8
  %19 = getelementptr inbounds %"struct.faiss::IndexBinary", ptr %13, i32 0, i32 2
  %20 = load i32, ptr %19, align 4
  %21 = sext i32 %20 to i64
  invoke void @_ZN5faiss18ArrayInvertedListsC1Emm(ptr noundef nonnull align 8 dereferenceable(80) %16, i64 noundef %18, i64 noundef %21)
          to label %22 unwind label %61

22:                                               ; preds = %17
  store ptr %16, ptr %15, align 8
  %23 = getelementptr inbounds %"struct.faiss::IndexBinaryIVF", ptr %13, i32 0, i32 2
  store i8 1, ptr %23, align 8
  %24 = getelementptr inbounds %"struct.faiss::IndexBinaryIVF", ptr %13, i32 0, i32 3
  store i64 1, ptr %24, align 8
  %25 = getelementptr inbounds %"struct.faiss::IndexBinaryIVF", ptr %13, i32 0, i32 4
  store i64 0, ptr %25, align 8
  %26 = getelementptr inbounds %"struct.faiss::IndexBinaryIVF", ptr %13, i32 0, i32 5
  store i8 1, ptr %26, align 8
  %27 = getelementptr inbounds %"struct.faiss::IndexBinaryIVF", ptr %13, i32 0, i32 6
  store i8 0, ptr %27, align 1
  %28 = getelementptr inbounds %"struct.faiss::IndexBinaryIVF", ptr %13, i32 0, i32 7
  invoke void @_ZN5faiss9DirectMapC1Ev(ptr noundef nonnull align 8 dereferenceable(88) %28)
          to label %29 unwind label %57

29:                                               ; preds = %22
  %30 = getelementptr inbounds %"struct.faiss::IndexBinaryIVF", ptr %13, i32 0, i32 8
  %31 = load ptr, ptr %6, align 8
  store ptr %31, ptr %30, align 8
  %32 = getelementptr inbounds %"struct.faiss::IndexBinaryIVF", ptr %13, i32 0, i32 9
  %33 = load i64, ptr %8, align 8
  store i64 %33, ptr %32, align 8
  %34 = getelementptr inbounds %"struct.faiss::IndexBinaryIVF", ptr %13, i32 0, i32 10
  store i8 0, ptr %34, align 8
  %35 = getelementptr inbounds %"struct.faiss::IndexBinaryIVF", ptr %13, i32 0, i32 11
  call void @_ZN5faiss20ClusteringParametersC2Ev(ptr noundef nonnull align 8 dereferenceable(40) %35) #14
  %36 = getelementptr inbounds %"struct.faiss::IndexBinaryIVF", ptr %13, i32 0, i32 12
  store ptr null, ptr %36, align 8
  br label %37

37:                                               ; preds = %29
  %38 = load i64, ptr %7, align 8
  %39 = load ptr, ptr %6, align 8
  %40 = getelementptr inbounds %"struct.faiss::IndexBinary", ptr %39, i32 0, i32 1
  %41 = load i32, ptr %40, align 8
  %42 = sext i32 %41 to i64
  %43 = icmp eq i64 %38, %42
  br i1 %43, label %76, label %44

44:                                               ; preds = %37
  br label %45

45:                                               ; preds = %44
  call void @_ZNSt7__cxx1112basic_stringIcSt11char_traitsIcESaIcEEC1Ev(ptr noundef nonnull align 8 dereferenceable(32) %11) #14
  %46 = call i32 (ptr, i64, ptr, ...) @snprintf(ptr noundef null, i64 noundef 0, ptr noundef @.str, ptr noundef @.str.1) #14
  store i32 %46, ptr %12, align 4
  %47 = load i32, ptr %12, align 4
  %48 = add nsw i32 %47, 1
  %49 = sext i32 %48 to i64
  invoke void @_ZNSt7__cxx1112basic_stringIcSt11char_traitsIcESaIcEE6resizeEm(ptr noundef nonnull align 8 dereferenceable(32) %11, i64 noundef %49)
          to label %50 unwind label %65

50:                                               ; preds = %45
  %51 = invoke noundef nonnull align 1 dereferenceable(1) ptr @_ZNSt7__cxx1112basic_stringIcSt11char_traitsIcESaIcEEixEm(ptr noundef nonnull align 8 dereferenceable(32) %11, i64 noundef 0)
          to label %52 unwind label %65

52:                                               ; preds = %50
  %53 = call noundef i64 @_ZNKSt7__cxx1112basic_stringIcSt11char_traitsIcESaIcEE4sizeEv(ptr noundef nonnull align 8 dereferenceable(32) %11) #14
  %54 = call i32 (ptr, i64, ptr, ...) @snprintf(ptr noundef %51, i64 noundef %53, ptr noundef @.str, ptr noundef @.str.1) #14
  %55 = call ptr @__cxa_allocate_exception(i64 40) #14
  invoke void @_ZN5faiss14FaissExceptionC1ERKNSt7__cxx1112basic_stringIcSt11char_traitsIcESaIcEEEPKcSA_i(ptr noundef nonnull align 8 dereferenceable(40) %55, ptr noundef nonnull align 8 dereferenceable(32) %11, ptr noundef @__PRETTY_FUNCTION__._ZN5faiss14IndexBinaryIVFC2EPNS_11IndexBinaryEmm, ptr noundef @.str.2, i32 noundef 34)
          to label %56 unwind label %69

56:                                               ; preds = %52
  invoke void @__cxa_throw(ptr %55, ptr @_ZTIN5faiss14FaissExceptionE, ptr @_ZN5faiss14FaissExceptionD2Ev) #19
          to label %101 unwind label %65

57:                                               ; preds = %22, %4
  %58 = landingpad { ptr, i32 }
          cleanup
  %59 = extractvalue { ptr, i32 } %58, 0
  store ptr %59, ptr %9, align 8
  %60 = extractvalue { ptr, i32 } %58, 1
  store i32 %60, ptr %10, align 4
  br label %95

61:                                               ; preds = %17
  %62 = landingpad { ptr, i32 }
          cleanup
  %63 = extractvalue { ptr, i32 } %62, 0
  store ptr %63, ptr %9, align 8
  %64 = extractvalue { ptr, i32 } %62, 1
  store i32 %64, ptr %10, align 4
  call void @_ZdlPv(ptr noundef %16) #17
  br label %95

65:                                               ; preds = %56, %50, %45
  %66 = landingpad { ptr, i32 }
          cleanup
  %67 = extractvalue { ptr, i32 } %66, 0
  store ptr %67, ptr %9, align 8
  %68 = extractvalue { ptr, i32 } %66, 1
  store i32 %68, ptr %10, align 4
  br label %73

69:                                               ; preds = %52
  %70 = landingpad { ptr, i32 }
          cleanup
  %71 = extractvalue { ptr, i32 } %70, 0
  store ptr %71, ptr %9, align 8
  %72 = extractvalue { ptr, i32 } %70, 1
  store i32 %72, ptr %10, align 4
  call void @__cxa_free_exception(ptr %55) #14
  br label %73

73:                                               ; preds = %69, %65
  call void @_ZNSt7__cxx1112basic_stringIcSt11char_traitsIcESaIcEED1Ev(ptr noundef nonnull align 8 dereferenceable(32) %11) #14
  call void @_ZN5faiss9DirectMapD2Ev(ptr noundef nonnull align 8 dereferenceable(88) %28) #14
  br label %95

74:                                               ; No predecessors!
  br label %75

75:                                               ; preds = %74
  br label %76

76:                                               ; preds = %75, %37
  br label %77

77:                                               ; preds = %76
  br label %78

78:                                               ; preds = %77
  %79 = load ptr, ptr %6, align 8
  %80 = getelementptr inbounds %"struct.faiss::IndexBinary", ptr %79, i32 0, i32 5
  %81 = load i8, ptr %80, align 1
  %82 = trunc i8 %81 to i1
  br i1 %82, label %83, label %89

83:                                               ; preds = %78
  %84 = load ptr, ptr %6, align 8
  %85 = getelementptr inbounds %"struct.faiss::IndexBinary", ptr %84, i32 0, i32 3
  %86 = load i64, ptr %85, align 8
  %87 = load i64, ptr %8, align 8
  %88 = icmp eq i64 %86, %87
  br label %89

89:                                               ; preds = %83, %78
  %90 = phi i1 [ false, %78 ], [ %88, %83 ]
  %91 = getelementptr inbounds %"struct.faiss::IndexBinary", ptr %13, i32 0, i32 5
  %92 = zext i1 %90 to i8
  store i8 %92, ptr %91, align 1
  %93 = getelementptr inbounds %"struct.faiss::IndexBinaryIVF", ptr %13, i32 0, i32 11
  %94 = getelementptr inbounds %"struct.faiss::ClusteringParameters", ptr %93, i32 0, i32 0
  store i32 10, ptr %94, align 8
  ret void

95:                                               ; preds = %73, %61, %57
  call void @_ZN5faiss11IndexBinaryD2Ev(ptr noundef nonnull align 8 dereferenceable(32) %13) #14
  br label %96

96:                                               ; preds = %95
  %97 = load ptr, ptr %9, align 8
  %98 = load i32, ptr %10, align 4
  %99 = insertvalue { ptr, i32 } poison, ptr %97, 0
  %100 = insertvalue { ptr, i32 } %99, i32 %98, 1
  resume { ptr, i32 } %100

101:                                              ; preds = %56
  unreachable
}