; Function Attrs: mustprogress uwtable
define void @_ZN5faiss14IndexBinaryIVFC2EPNS_11IndexBinaryEmm(ptr noundef nonnull align 8 dereferenceable(232) %0, ptr noundef %1, i64 noundef %2, i64 noundef %3) unnamed_addr #1 align 2 personality ptr @__gxx_personality_v0 {
  %5 = alloca %"class.std::__cxx11::basic_string", align 8
  tail call void @_ZN5faiss11IndexBinaryC2ElNS_10MetricTypeE(ptr noundef nonnull align 8 dereferenceable(32) %0, i64 noundef %2, i32 noundef 1)
  store ptr getelementptr inbounds ({ [18 x ptr] }, ptr @_ZTVN5faiss14IndexBinaryIVFE, i64 0, i32 0, i64 2), ptr %0, align 8
  %6 = getelementptr inbounds i8, ptr %0, i64 32
  %7 = invoke noalias noundef nonnull dereferenceable(80) ptr @_Znwm(i64 noundef 80) #28
          to label %8 unwind label %46

8:                                                ; preds = %4
  %9 = getelementptr inbounds i8, ptr %0, i64 12
  %10 = load i32, ptr %9, align 4
  %11 = sext i32 %10 to i64
  invoke void @_ZN5faiss18ArrayInvertedListsC1Emm(ptr noundef nonnull align 8 dereferenceable(80) %7, i64 noundef %3, i64 noundef %11)
          to label %12 unwind label %48

12:                                               ; preds = %8
  store ptr %7, ptr %6, align 8
  %13 = getelementptr inbounds i8, ptr %0, i64 40
  store i8 1, ptr %13, align 8
  %14 = getelementptr inbounds i8, ptr %0, i64 48
  store i64 1, ptr %14, align 8
  %15 = getelementptr inbounds i8, ptr %0, i64 56
  store i64 0, ptr %15, align 8
  %16 = getelementptr inbounds i8, ptr %0, i64 64
  store i8 1, ptr %16, align 8
  %17 = getelementptr inbounds i8, ptr %0, i64 65
  store i8 0, ptr %17, align 1
  %18 = getelementptr inbounds i8, ptr %0, i64 72
  invoke void @_ZN5faiss9DirectMapC1Ev(ptr noundef nonnull align 8 dereferenceable(88) %18)
          to label %19 unwind label %46

19:                                               ; preds = %12
  %20 = getelementptr inbounds i8, ptr %0, i64 160
  store ptr %1, ptr %20, align 8
  %21 = getelementptr inbounds i8, ptr %0, i64 168
  store i64 %3, ptr %21, align 8
  %22 = getelementptr inbounds i8, ptr %0, i64 176
  store i8 0, ptr %22, align 8
  %23 = getelementptr inbounds i8, ptr %0, i64 184
  store i32 25, ptr %23, align 8
  %24 = getelementptr inbounds i8, ptr %0, i64 188
  store i32 1, ptr %24, align 4
  %25 = getelementptr inbounds i8, ptr %0, i64 192
  %26 = getelementptr inbounds i8, ptr %0, i64 200
  tail call void @llvm.memset.p0.i64(ptr noundef nonnull align 8 dereferenceable(5) %25, i8 0, i64 5, i1 false)
  store i32 39, ptr %26, align 8
  %27 = getelementptr inbounds i8, ptr %0, i64 204
  store i32 256, ptr %27, align 4
  %28 = getelementptr inbounds i8, ptr %0, i64 208
  store i32 1234, ptr %28, align 8
  %29 = getelementptr inbounds i8, ptr %0, i64 216
  store i64 32768, ptr %29, align 8
  %30 = getelementptr inbounds i8, ptr %0, i64 224
  store ptr null, ptr %30, align 8
  %31 = getelementptr inbounds i8, ptr %1, i64 8
  %32 = load i32, ptr %31, align 8
  %33 = sext i32 %32 to i64
  %34 = icmp eq i64 %33, %2
  br i1 %34, label %55, label %35

35:                                               ; preds = %19
  call void @_ZNSt7__cxx1112basic_stringIcSt11char_traitsIcESaIcEEC1Ev(ptr noundef nonnull align 8 dereferenceable(32) %5) #20
  %36 = call i32 (ptr, i64, ptr, ...) @snprintf(ptr noundef null, i64 noundef 0, ptr noundef nonnull @.str, ptr noundef nonnull @.str.1) #20
  %37 = add nsw i32 %36, 1
  %38 = sext i32 %37 to i64
  invoke void @_ZNSt7__cxx1112basic_stringIcSt11char_traitsIcESaIcEE6resizeEm(ptr noundef nonnull align 8 dereferenceable(32) %5, i64 noundef %38)
          to label %39 unwind label %50

39:                                               ; preds = %35
  %40 = invoke noundef nonnull align 1 dereferenceable(1) ptr @_ZNSt7__cxx1112basic_stringIcSt11char_traitsIcESaIcEEixEm(ptr noundef nonnull align 8 dereferenceable(32) %5, i64 noundef 0)
          to label %41 unwind label %50

41:                                               ; preds = %39
  %42 = call noundef i64 @_ZNKSt7__cxx1112basic_stringIcSt11char_traitsIcESaIcEE4sizeEv(ptr noundef nonnull align 8 dereferenceable(32) %5) #20
  %43 = call i32 (ptr, i64, ptr, ...) @snprintf(ptr noundef nonnull %40, i64 noundef %42, ptr noundef nonnull @.str, ptr noundef nonnull @.str.1) #20
  %44 = call ptr @__cxa_allocate_exception(i64 40) #20
  invoke void @_ZN5faiss14FaissExceptionC1ERKNSt7__cxx1112basic_stringIcSt11char_traitsIcESaIcEEEPKcSA_i(ptr noundef nonnull align 8 dereferenceable(40) %44, ptr noundef nonnull align 8 dereferenceable(32) %5, ptr noundef nonnull @__PRETTY_FUNCTION__._ZN5faiss14IndexBinaryIVFC2EPNS_11IndexBinaryEmm, ptr noundef nonnull @.str.2, i32 noundef 34)
          to label %45 unwind label %52

45:                                               ; preds = %41
  invoke void @__cxa_throw(ptr nonnull %44, ptr nonnull @_ZTIN5faiss14FaissExceptionE, ptr nonnull @_ZN5faiss14FaissExceptionD2Ev) #29
          to label %68 unwind label %50

46:                                               ; preds = %12, %4
  %47 = landingpad { ptr, i32 }
          cleanup
  br label %67

48:                                               ; preds = %8
  %49 = landingpad { ptr, i32 }
          cleanup
  tail call void @_ZdlPv(ptr noundef nonnull %7) #27
  br label %67

50:                                               ; preds = %45, %39, %35
  %51 = landingpad { ptr, i32 }
          cleanup
  br label %54

52:                                               ; preds = %41
  %53 = landingpad { ptr, i32 }
          cleanup
  call void @__cxa_free_exception(ptr %44) #20
  br label %54

54:                                               ; preds = %52, %50
  %.pn = phi { ptr, i32 } [ %51, %50 ], [ %53, %52 ]
  call void @_ZNSt7__cxx1112basic_stringIcSt11char_traitsIcESaIcEED1Ev(ptr noundef nonnull align 8 dereferenceable(32) %5) #20
  call void @_ZN5faiss9DirectMapD2Ev(ptr noundef nonnull align 8 dereferenceable(88) %18) #20
  br label %67

55:                                               ; preds = %19
  %56 = getelementptr inbounds i8, ptr %1, i64 25
  %57 = load i8, ptr %56, align 1
  %58 = and i8 %57, 1
  %.not = icmp eq i8 %58, 0
  br i1 %.not, label %64, label %59

59:                                               ; preds = %55
  %60 = getelementptr inbounds i8, ptr %1, i64 16
  %61 = load i64, ptr %60, align 8
  %62 = icmp eq i64 %61, %3
  %63 = zext i1 %62 to i8
  br label %64

64:                                               ; preds = %59, %55
  %65 = phi i8 [ 0, %55 ], [ %63, %59 ]
  %66 = getelementptr inbounds i8, ptr %0, i64 25
  store i8 %65, ptr %66, align 1
  store i32 10, ptr %23, align 8
  ret void

67:                                               ; preds = %54, %48, %46
  %.pn.pn = phi { ptr, i32 } [ %.pn, %54 ], [ %47, %46 ], [ %49, %48 ]
  call void @_ZN5faiss11IndexBinaryD2Ev(ptr noundef nonnull align 8 dereferenceable(32) %0) #20
  resume { ptr, i32 } %.pn.pn

68:                                               ; preds = %45
  unreachable
}